target datalayout = "e-m:e-p270:32:32-p271:32:32-p272:64:64-i64:64-i128:128-f80:128-n8:16:32:64-S128"
target triple = "x86_64-pc-linux-gnu"

%struct.H5C_class_t = type { i32, ptr, i32, i32, ptr, ptr, ptr, ptr, ptr, ptr, ptr, ptr, ptr, ptr }
%struct.H5FS_t = type { %struct.H5C_cache_entry_t, i64, i64, i64, i64, i32, i16, i32, i32, i32, i64, i64, i64, i64, i32, i64, i64, ptr, i8, i32, i8, i8, i32, i64, i64, i64, ptr }
%struct.H5C_cache_entry_t = type { ptr, i64, i64, ptr, i8, ptr, i8, i8, i8, i8, i32, i8, i8, i8, i8, i8, i32, ptr, i32, i32, i32, i32, i32, i8, i8, ptr, ptr, ptr, ptr, ptr, ptr, i8, i32, i8, i64, ptr, i64, i64, i32, i8, i32, i32, i8, ptr, ptr, ptr }

@.str.2 = private unnamed_addr constant [98 x i8] c"generated/home/dtcxzyw/WorkSpace/Projects/compilers/llvm-opt-benchmark/bench/hdf5/hdf5/src/H5FS.c\00", align 1
@H5E_NOSPACE_g = external global i64, align 8
@H5E_FSPACE_g = external global i64, align 8
@H5E_CANTINIT_g = external global i64, align 8
@H5AC_FSPACE_SINFO = external constant [1 x %struct.H5C_class_t], align 16
@H5E_CANTMARKDIRTY_g = external global i64, align 8
@.str.15 = private unnamed_addr constant [42 x i8] c"unable to mark free space header as dirty\00", align 1
@.str.16 = private unnamed_addr constant [39 x i8] c"can't add free space sections to cache\00", align 1
@__func__.H5FS__dirty = private unnamed_addr constant [12 x i8] c"H5FS__dirty\00", align 1
@__func__.H5FS_alloc_sect = private unnamed_addr constant [16 x i8] c"H5FS_alloc_sect\00", align 1
@.str.25 = private unnamed_addr constant [40 x i8] c"file allocation failed for section info\00", align 1

; Function Attrs: nounwind uwtable
define i32 @H5FS__dirty(ptr noundef %0) #0 {
  %2 = alloca ptr, align 8
  %3 = alloca i32, align 4
  %4 = alloca i8, align 1
  store ptr %0, ptr %2, align 8
  store i32 0, ptr %3, align 4
  store i8 0, ptr %4, align 1
  %5 = load ptr, ptr %2, align 8
  %6 = getelementptr inbounds %struct.H5FS_t, ptr %5, i32 0, i32 15
  %7 = load i64, ptr %6, align 8
  %8 = icmp ne i64 %7, -1
  br i1 %8, label %9, label %29

9:                                                ; preds = %1
  %10 = load ptr, ptr %2, align 8
  %11 = call i32 @H5AC_mark_entry_dirty(ptr noundef %10)
  %12 = icmp slt i32 %11, 0
  br i1 %12, label %13, label %28

13:                                               ; preds = %9
  br label %14

14:                                               ; preds = %13
  br label %15

15:                                               ; preds = %14
  br label %16

16:                                               ; preds = %15
  %17 = load i64, ptr @H5E_FSPACE_g, align 8
  %18 = load i64, ptr @H5E_CANTMARKDIRTY_g, align 8
  %19 = call i32 (ptr, ptr, i32, i64, i64, ptr, ...) @H5E_printf_stack(ptr noundef @.str.2, ptr noundef @__func__.H5FS__dirty, i32 noundef 775, i64 noundef %17, i64 noundef %18, ptr noundef @.str.15)
  br label %20

20:                                               ; preds = %16
  store i8 1, ptr %4, align 1
  %21 = load i8, ptr %4, align 1
  %22 = trunc i8 %21 to i1
  %23 = zext i1 %22 to i8
  store i8 %23, ptr %4, align 1
  br label %24

24:                                               ; preds = %20
  br label %25

25:                                               ; preds = %24
  store i32 -1, ptr %3, align 4
  br label %30

26:                                               ; No predecessors!
  br label %27

27:                                               ; preds = %26
  br label %28

28:                                               ; preds = %27, %9
  br label %29

29:                                               ; preds = %28, %1
  br label %30

30:                                               ; preds = %29, %25
  %31 = load i32, ptr %3, align 4
  ret i32 %31
}

; Function Attrs: nounwind uwtable
define i32 @H5FS_alloc_sect(ptr noundef %0, ptr noundef %1) #0 {
  %3 = alloca ptr, align 8
  %4 = alloca ptr, align 8
  %5 = alloca i32, align 4
  %6 = alloca i8, align 1
  store ptr %0, ptr %3, align 8
  store ptr %1, ptr %4, align 8
  store i32 0, ptr %5, align 4
  store i8 0, ptr %6, align 1
  %7 = load ptr, ptr %4, align 8
  %8 = getelementptr inbounds %struct.H5FS_t, ptr %7, i32 0, i32 11
  %9 = load i64, ptr %8, align 8
  %10 = icmp ne i64 %9, -1
  br i1 %10, label %97, label %11

11:                                               ; preds = %2
  %12 = load ptr, ptr %4, align 8
  %13 = getelementptr inbounds %struct.H5FS_t, ptr %12, i32 0, i32 17
  %14 = load ptr, ptr %13, align 8
  %15 = icmp ne ptr %14, null
  br i1 %15, label %16, label %97

16:                                               ; preds = %11
  %17 = load ptr, ptr %4, align 8
  %18 = getelementptr inbounds %struct.H5FS_t, ptr %17, i32 0, i32 3
  %19 = load i64, ptr %18, align 8
  %20 = icmp ugt i64 %19, 0
  br i1 %20, label %21, label %97

21:                                               ; preds = %16
  %22 = load ptr, ptr %3, align 8
  %23 = load ptr, ptr %4, align 8
  %24 = getelementptr inbounds %struct.H5FS_t, ptr %23, i32 0, i32 12
  %25 = load i64, ptr %24, align 8
  %26 = call i64 @H5MF_alloc(ptr noundef %22, i32 noundef 5, i64 noundef %25)
  %27 = load ptr, ptr %4, align 8
  %28 = getelementptr inbounds %struct.H5FS_t, ptr %27, i32 0, i32 11
  store i64 %26, ptr %28, align 8
  %29 = icmp eq i64 -1, %26
  br i1 %29, label %30, label %45

30:                                               ; preds = %21
  br label %31

31:                                               ; preds = %30
  br label %32

32:                                               ; preds = %31
  br label %33

33:                                               ; preds = %32
  %34 = load i64, ptr @H5E_FSPACE_g, align 8
  %35 = load i64, ptr @H5E_NOSPACE_g, align 8
  %36 = call i32 (ptr, ptr, i32, i64, i64, ptr, ...) @H5E_printf_stack(ptr noundef @.str.2, ptr noundef @__func__.H5FS_alloc_sect, i32 noundef 840, i64 noundef %34, i64 noundef %35, ptr noundef @.str.25)
  br label %37

37:                                               ; preds = %33
  store i8 1, ptr %6, align 1
  %38 = load i8, ptr %6, align 1
  %39 = trunc i8 %38 to i1
  %40 = zext i1 %39 to i8
  store i8 %40, ptr %6, align 1
  br label %41

41:                                               ; preds = %37
  br label %42

42:                                               ; preds = %41
  store i32 -1, ptr %5, align 4
  br label %98

43:                                               ; No predecessors!
  br label %44

44:                                               ; preds = %43
  br label %45

45:                                               ; preds = %44, %21
  %46 = load ptr, ptr %4, align 8
  %47 = getelementptr inbounds %struct.H5FS_t, ptr %46, i32 0, i32 12
  %48 = load i64, ptr %47, align 8
  %49 = load ptr, ptr %4, align 8
  %50 = getelementptr inbounds %struct.H5FS_t, ptr %49, i32 0, i32 13
  store i64 %48, ptr %50, align 8
  %51 = load ptr, ptr %4, align 8
  %52 = call i32 @H5FS__dirty(ptr noundef %51)
  %53 = icmp slt i32 %52, 0
  br i1 %53, label %54, label %69

54:                                               ; preds = %45
  br label %55

55:                                               ; preds = %54
  br label %56

56:                                               ; preds = %55
  br label %57

57:                                               ; preds = %56
  %58 = load i64, ptr @H5E_FSPACE_g, align 8
  %59 = load i64, ptr @H5E_CANTMARKDIRTY_g, align 8
  %60 = call i32 (ptr, ptr, i32, i64, i64, ptr, ...) @H5E_printf_stack(ptr noundef @.str.2, ptr noundef @__func__.H5FS_alloc_sect, i32 noundef 845, i64 noundef %58, i64 noundef %59, ptr noundef @.str.15)
  br label %61

61:                                               ; preds = %57
  store i8 1, ptr %6, align 1
  %62 = load i8, ptr %6, align 1
  %63 = trunc i8 %62 to i1
  %64 = zext i1 %63 to i8
  store i8 %64, ptr %6, align 1
  br label %65

65:                                               ; preds = %61
  br label %66

66:                                               ; preds = %65
  store i32 -1, ptr %5, align 4
  br label %98

67:                                               ; No predecessors!
  br label %68

68:                                               ; preds = %67
  br label %69

69:                                               ; preds = %68, %45
  %70 = load ptr, ptr %3, align 8
  %71 = load ptr, ptr %4, align 8
  %72 = getelementptr inbounds %struct.H5FS_t, ptr %71, i32 0, i32 11
  %73 = load i64, ptr %72, align 8
  %74 = load ptr, ptr %4, align 8
  %75 = getelementptr inbounds %struct.H5FS_t, ptr %74, i32 0, i32 17
  %76 = load ptr, ptr %75, align 8
  %77 = call i32 @H5AC_insert_entry(ptr noundef %70, ptr noundef @H5AC_FSPACE_SINFO, i64 noundef %73, ptr noundef %76, i32 noundef 0)
  %78 = icmp slt i32 %77, 0
  br i1 %78, label %79, label %94

79:                                               ; preds = %69
  br label %80

80:                                               ; preds = %79
  br label %81

81:                                               ; preds = %80
  br label %82

82:                                               ; preds = %81
  %83 = load i64, ptr @H5E_FSPACE_g, align 8
  %84 = load i64, ptr @H5E_CANTINIT_g, align 8
  %85 = call i32 (ptr, ptr, i32, i64, i64, ptr, ...) @H5E_printf_stack(ptr noundef @.str.2, ptr noundef @__func__.H5FS_alloc_sect, i32 noundef 849, i64 noundef %83, i64 noundef %84, ptr noundef @.str.16)
  br label %86

86:                                               ; preds = %82
  store i8 1, ptr %6, align 1
  %87 = load i8, ptr %6, align 1
  %88 = trunc i8 %87 to i1
  %89 = zext i1 %88 to i8
  store i8 %89, ptr %6, align 1
  br label %90

90:                                               ; preds = %86
  br label %91

91:                                               ; preds = %90
  store i32 -1, ptr %5, align 4
  br label %98

92:                                               ; No predecessors!
  br label %93

93:                                               ; preds = %92
  br label %94

94:                                               ; preds = %93, %69
  %95 = load ptr, ptr %4, align 8
  %96 = getelementptr inbounds %struct.H5FS_t, ptr %95, i32 0, i32 17
  store ptr null, ptr %96, align 8
  br label %97

97:                                               ; preds = %94, %16, %11, %2
  br label %98

98:                                               ; preds = %97, %91, %66, %42
  %99 = load i32, ptr %5, align 4
  ret i32 %99
}