; Function Attrs: nounwind uwtable
define range(i32 -1, 1) i32 @H5FS_alloc_sect(ptr noundef %0, ptr noundef %1) local_unnamed_addr #0 {
  %3 = getelementptr inbounds i8, ptr %1, i64 312
  %4 = load i64, ptr %3, align 8
  %.not = icmp eq i64 %4, -1
  br i1 %.not, label %5, label %45

5:                                                ; preds = %2
  %6 = getelementptr inbounds i8, ptr %1, i64 360
  %7 = load ptr, ptr %6, align 8
  %.not16 = icmp eq ptr %7, null
  br i1 %.not16, label %45, label %8

8:                                                ; preds = %5
  %9 = getelementptr inbounds i8, ptr %1, i64 264
  %10 = load i64, ptr %9, align 8
  %.not17 = icmp eq i64 %10, 0
  br i1 %.not17, label %45, label %11

11:                                               ; preds = %8
  %12 = getelementptr inbounds i8, ptr %1, i64 320
  %13 = load i64, ptr %12, align 8
  %14 = tail call i64 @H5MF_alloc(ptr noundef %0, i32 noundef 5, i64 noundef %13) #5
  store i64 %14, ptr %3, align 8
  %15 = icmp eq i64 %14, -1
  br i1 %15, label %16, label %20

16:                                               ; preds = %11
  %17 = load i64, ptr @H5E_FSPACE_g, align 8
  %18 = load i64, ptr @H5E_NOSPACE_g, align 8
  %19 = tail call i32 (ptr, ptr, i32, i64, i64, ptr, ...) @H5E_printf_stack(ptr noundef nonnull @.str.2, ptr noundef nonnull @__func__.H5FS_alloc_sect, i32 noundef 840, i64 noundef %17, i64 noundef %18, ptr noundef nonnull @.str.25) #5
  br label %45

20:                                               ; preds = %11
  %21 = load i64, ptr %12, align 8
  %22 = getelementptr inbounds i8, ptr %1, i64 328
  store i64 %21, ptr %22, align 8
  %23 = getelementptr inbounds i8, ptr %1, i64 344
  %24 = load i64, ptr %23, align 8
  %.not.i = icmp eq i64 %24, -1
  br i1 %.not.i, label %35, label %25

25:                                               ; preds = %20
  %26 = tail call i32 @H5AC_mark_entry_dirty(ptr noundef nonnull %1) #5
  %27 = icmp slt i32 %26, 0
  br i1 %27, label %28, label %._crit_edge

._crit_edge:                                      ; preds = %25
  %.pre = load i64, ptr %3, align 8
  br label %35

28:                                               ; preds = %25
  %29 = load i64, ptr @H5E_FSPACE_g, align 8
  %30 = load i64, ptr @H5E_CANTMARKDIRTY_g, align 8
  %31 = tail call i32 (ptr, ptr, i32, i64, i64, ptr, ...) @H5E_printf_stack(ptr noundef nonnull @.str.2, ptr noundef nonnull @__func__.H5FS__dirty, i32 noundef 775, i64 noundef %29, i64 noundef %30, ptr noundef nonnull @.str.15) #5
  %32 = load i64, ptr @H5E_FSPACE_g, align 8
  %33 = load i64, ptr @H5E_CANTMARKDIRTY_g, align 8
  %34 = tail call i32 (ptr, ptr, i32, i64, i64, ptr, ...) @H5E_printf_stack(ptr noundef nonnull @.str.2, ptr noundef nonnull @__func__.H5FS_alloc_sect, i32 noundef 845, i64 noundef %32, i64 noundef %33, ptr noundef nonnull @.str.15) #5
  br label %45

35:                                               ; preds = %._crit_edge, %20
  %36 = phi i64 [ %.pre, %._crit_edge ], [ %14, %20 ]
  %37 = load ptr, ptr %6, align 8
  %38 = tail call i32 @H5AC_insert_entry(ptr noundef %0, ptr noundef nonnull @H5AC_FSPACE_SINFO, i64 noundef %36, ptr noundef %37, i32 noundef 0) #5
  %39 = icmp slt i32 %38, 0
  br i1 %39, label %40, label %44

40:                                               ; preds = %35
  %41 = load i64, ptr @H5E_FSPACE_g, align 8
  %42 = load i64, ptr @H5E_CANTINIT_g, align 8
  %43 = tail call i32 (ptr, ptr, i32, i64, i64, ptr, ...) @H5E_printf_stack(ptr noundef nonnull @.str.2, ptr noundef nonnull @__func__.H5FS_alloc_sect, i32 noundef 849, i64 noundef %41, i64 noundef %42, ptr noundef nonnull @.str.16) #5
  br label %45

44:                                               ; preds = %35
  store ptr null, ptr %6, align 8
  br label %45

45:                                               ; preds = %2, %5, %8, %44, %40, %28, %16
  %.0 = phi i32 [ 0, %2 ], [ -1, %16 ], [ -1, %28 ], [ -1, %40 ], [ 0, %44 ], [ 0, %8 ], [ 0, %5 ]
  ret i32 %.0
}